; Function Attrs: mustprogress uwtable
define hidden void @_ZN3smt9theory_pb10init_modelERNS_15model_generatorE(ptr noundef nonnull readonly align 8 captures(none) dereferenceable(968) %0, ptr noundef nonnull align 8 dereferenceable(104) %1) unnamed_addr #4 align 2 {
  %3 = tail call noalias noundef ptr @_ZN6memory8allocateEm(i64 noundef 24)
  %4 = getelementptr inbounds nuw i8, ptr %0, i64 24
  %5 = load ptr, ptr %4, align 8, !tbaa !670
  %6 = getelementptr inbounds nuw i8, ptr %0, i64 8
  %7 = load i32, ptr %6, align 8, !tbaa !698
  tail call void @_ZN13value_factoryC2ER11ast_manageri(ptr noundef nonnull align 8 dereferenceable(20) %3, ptr noundef nonnull align 8 dereferenceable(976) %5, i32 noundef %7)
  store ptr getelementptr inbounds nuw inrange(-16, 48) (i8, ptr @_ZTVN3smt10pb_factoryE, i64 16), ptr %3, align 8, !tbaa !662
  tail call void @_ZN3smt15model_generator16register_factoryEP13value_factory(ptr noundef nonnull align 8 dereferenceable(104) %1, ptr noundef nonnull %3)
  ret void
}